target datalayout = "e-m:e-p270:32:32-p271:32:32-p272:64:64-i64:64-i128:128-f80:128-n8:16:32:64-S128"
target triple = "x86_64-unknown-linux-gnu"

%"class.hermes::Value" = type { i8, %"class.hermes::Type", %"class.llvh::SmallVector" }
%"class.hermes::Type" = type { i16, i16 }
%"class.llvh::SmallVector" = type { %"class.llvh::SmallVectorImpl", %"struct.llvh::SmallVectorStorage" }
%"class.llvh::SmallVectorImpl" = type { %"class.llvh::SmallVectorTemplateBase" }
%"class.llvh::SmallVectorTemplateBase" = type { %"class.llvh::SmallVectorTemplateCommon" }
%"class.llvh::SmallVectorTemplateCommon" = type { %"class.llvh::SmallVectorBase" }
%"class.llvh::SmallVectorBase" = type { ptr, i32, i32 }
%"struct.llvh::SmallVectorStorage" = type { [2 x %"struct.llvh::AlignedCharArrayUnion"] }
%"struct.llvh::AlignedCharArrayUnion" = type { %"struct.llvh::AlignedCharArray" }
%"struct.llvh::AlignedCharArray" = type { [8 x i8] }
%"class.hermes::Identifier" = type { ptr }
%"class.hermes::ScopeDesc" = type <{ %"class.hermes::Value", ptr, %"class.llvh::SmallVector.7", %"class.std::shared_ptr", ptr, %"class.llvh::SmallVector.13", i8, [7 x i8] }>
%"class.llvh::SmallVector.7" = type { %"class.llvh::SmallVectorImpl.8", %"struct.llvh::SmallVectorStorage.11" }
%"class.llvh::SmallVectorImpl.8" = type { %"class.llvh::SmallVectorTemplateBase.9" }
%"class.llvh::SmallVectorTemplateBase.9" = type { %"class.llvh::SmallVectorTemplateCommon.10" }
%"class.llvh::SmallVectorTemplateCommon.10" = type { %"class.llvh::SmallVectorBase" }
%"struct.llvh::SmallVectorStorage.11" = type { [8 x %"struct.llvh::AlignedCharArrayUnion.12"] }
%"struct.llvh::AlignedCharArrayUnion.12" = type { %"struct.llvh::AlignedCharArray" }
%"class.std::shared_ptr" = type { %"class.std::__shared_ptr" }
%"class.std::__shared_ptr" = type { ptr, %"class.std::__shared_count" }
%"class.std::__shared_count" = type { ptr }
%"class.llvh::SmallVector.13" = type { %"class.llvh::SmallVectorImpl.14", %"struct.llvh::SmallVectorStorage.17" }
%"class.llvh::SmallVectorImpl.14" = type { %"class.llvh::SmallVectorTemplateBase.15" }
%"class.llvh::SmallVectorTemplateBase.15" = type { %"class.llvh::SmallVectorTemplateCommon.16" }
%"class.llvh::SmallVectorTemplateCommon.16" = type { %"class.llvh::SmallVectorBase" }
%"struct.llvh::SmallVectorStorage.17" = type { [8 x %"struct.llvh::AlignedCharArrayUnion.18"] }
%"struct.llvh::AlignedCharArrayUnion.18" = type { %"struct.llvh::AlignedCharArray" }
%"class.hermes::Variable" = type <{ %"class.hermes::Value", i8, [7 x i8], %"class.hermes::Identifier", ptr, i8, [7 x i8] }>

; Function Attrs: mustprogress nounwind uwtable
define linkonce_odr hidden void @_ZN4llvh15SmallVectorBaseC2EPvm(ptr noundef nonnull align 8 dereferenceable(16) %this, ptr noundef %FirstEl, i64 noundef %Capacity) unnamed_addr #0 comdat align 2 {
entry:
  %this.addr = alloca ptr, align 8
  %FirstEl.addr = alloca ptr, align 8
  %Capacity.addr = alloca i64, align 8
  store ptr %this, ptr %this.addr, align 8
  store ptr %FirstEl, ptr %FirstEl.addr, align 8
  store i64 %Capacity, ptr %Capacity.addr, align 8
  %this1 = load ptr, ptr %this.addr, align 8
  %BeginX = getelementptr inbounds %"class.llvh::SmallVectorBase", ptr %this1, i32 0, i32 0
  %0 = load ptr, ptr %FirstEl.addr, align 8
  store ptr %0, ptr %BeginX, align 8
  %Size = getelementptr inbounds %"class.llvh::SmallVectorBase", ptr %this1, i32 0, i32 1
  store i32 0, ptr %Size, align 8
  %Capacity2 = getelementptr inbounds %"class.llvh::SmallVectorBase", ptr %this1, i32 0, i32 2
  %1 = load i64, ptr %Capacity.addr, align 8
  %conv = trunc i64 %1 to i32
  store i32 %conv, ptr %Capacity2, align 4
  ret void
}

; Function Attrs: mustprogress nounwind uwtable
define linkonce_odr hidden noundef ptr @_ZNK4llvh25SmallVectorTemplateCommonIPN6hermes11InstructionEvE10getFirstElEv(ptr noundef nonnull align 8 dereferenceable(16) %this) #0 comdat align 2 {
entry:
  %this.addr = alloca ptr, align 8
  store ptr %this, ptr %this.addr, align 8
  %this1 = load ptr, ptr %this.addr, align 8
  %add.ptr = getelementptr inbounds i8, ptr %this1, i64 16
  ret ptr %add.ptr
}

; Function Attrs: mustprogress nounwind uwtable
define linkonce_odr hidden noundef ptr @_ZNK4llvh25SmallVectorTemplateCommonIPN6hermes8VariableEvE10getFirstElEv(ptr noundef nonnull align 8 dereferenceable(16) %this) #0 comdat align 2 {
entry:
  %this.addr = alloca ptr, align 8
  store ptr %this, ptr %this.addr, align 8
  %this1 = load ptr, ptr %this.addr, align 8
  %add.ptr = getelementptr inbounds i8, ptr %this1, i64 16
  ret ptr %add.ptr
}

; Function Attrs: mustprogress nounwind uwtable
define linkonce_odr hidden void @_ZN4llvh25SmallVectorTemplateCommonIPN6hermes11InstructionEvEC2Em(ptr noundef nonnull align 8 dereferenceable(16) %this, i64 noundef %Size) unnamed_addr #0 comdat align 2 {
entry:
  %this.addr = alloca ptr, align 8
  %Size.addr = alloca i64, align 8
  store ptr %this, ptr %this.addr, align 8
  store i64 %Size, ptr %Size.addr, align 8
  %this1 = load ptr, ptr %this.addr, align 8
  %call = call noundef ptr @_ZNK4llvh25SmallVectorTemplateCommonIPN6hermes11InstructionEvE10getFirstElEv(ptr noundef nonnull align 8 dereferenceable(16) %this1)
  %0 = load i64, ptr %Size.addr, align 8
  call void @_ZN4llvh15SmallVectorBaseC2EPvm(ptr noundef nonnull align 8 dereferenceable(16) %this1, ptr noundef %call, i64 noundef %0)
  ret void
}

; Function Attrs: mustprogress nounwind uwtable
define linkonce_odr hidden void @_ZN4llvh25SmallVectorTemplateCommonIPN6hermes8VariableEvE8grow_podEmm(ptr noundef nonnull align 8 dereferenceable(16) %this, i64 noundef %MinCapacity, i64 noundef %TSize) #0 comdat align 2 {
entry:
  %this.addr = alloca ptr, align 8
  %MinCapacity.addr = alloca i64, align 8
  %TSize.addr = alloca i64, align 8
  store ptr %this, ptr %this.addr, align 8
  store i64 %MinCapacity, ptr %MinCapacity.addr, align 8
  store i64 %TSize, ptr %TSize.addr, align 8
  %this1 = load ptr, ptr %this.addr, align 8
  %call = call noundef ptr @_ZNK4llvh25SmallVectorTemplateCommonIPN6hermes8VariableEvE10getFirstElEv(ptr noundef nonnull align 8 dereferenceable(16) %this1)
  %0 = load i64, ptr %MinCapacity.addr, align 8
  %1 = load i64, ptr %TSize.addr, align 8
  call void @_ZN4llvh15SmallVectorBase8grow_podEPvmm(ptr noundef nonnull align 8 dereferenceable(16) %this1, ptr noundef %call, i64 noundef %0, i64 noundef %1)
  ret void
}

; Function Attrs: mustprogress nounwind uwtable
define linkonce_odr hidden void @_ZN4llvh23SmallVectorTemplateBaseIPN6hermes11InstructionELb1EEC2Em(ptr noundef nonnull align 8 dereferenceable(16) %this, i64 noundef %Size) unnamed_addr #0 comdat align 2 {
entry:
  %this.addr = alloca ptr, align 8
  %Size.addr = alloca i64, align 8
  store ptr %this, ptr %this.addr, align 8
  store i64 %Size, ptr %Size.addr, align 8
  %this1 = load ptr, ptr %this.addr, align 8
  %0 = load i64, ptr %Size.addr, align 8
  call void @_ZN4llvh25SmallVectorTemplateCommonIPN6hermes11InstructionEvEC2Em(ptr noundef nonnull align 8 dereferenceable(16) %this1, i64 noundef %0)
  ret void
}

; Function Attrs: mustprogress nounwind uwtable
define linkonce_odr hidden void @_ZN4llvh15SmallVectorBase8set_sizeEm(ptr noundef nonnull align 8 dereferenceable(16) %this, i64 noundef %Size) #0 comdat align 2 {
entry:
  %this.addr = alloca ptr, align 8
  %Size.addr = alloca i64, align 8
  store ptr %this, ptr %this.addr, align 8
  store i64 %Size, ptr %Size.addr, align 8
  %this1 = load ptr, ptr %this.addr, align 8
  %0 = load i64, ptr %Size.addr, align 8
  %conv = trunc i64 %0 to i32
  %Size2 = getelementptr inbounds %"class.llvh::SmallVectorBase", ptr %this1, i32 0, i32 1
  store i32 %conv, ptr %Size2, align 8
  ret void
}

; Function Attrs: mustprogress nounwind uwtable
define linkonce_odr hidden void @_ZN4llvh23SmallVectorTemplateBaseIPN6hermes8VariableELb1EE4growEm(ptr noundef nonnull align 8 dereferenceable(16) %this, i64 noundef %MinSize) #0 comdat align 2 {
entry:
  %this.addr = alloca ptr, align 8
  %MinSize.addr = alloca i64, align 8
  store ptr %this, ptr %this.addr, align 8
  store i64 %MinSize, ptr %MinSize.addr, align 8
  %this1 = load ptr, ptr %this.addr, align 8
  %0 = load i64, ptr %MinSize.addr, align 8
  call void @_ZN4llvh25SmallVectorTemplateCommonIPN6hermes8VariableEvE8grow_podEmm(ptr noundef nonnull align 8 dereferenceable(16) %this1, i64 noundef %0, i64 noundef 8)
  ret void
}

; Function Attrs: mustprogress nounwind uwtable
define linkonce_odr hidden noundef i64 @_ZNK4llvh15SmallVectorBase8capacityEv(ptr noundef nonnull align 8 dereferenceable(16) %this) #0 comdat align 2 {
entry:
  %this.addr = alloca ptr, align 8
  store ptr %this, ptr %this.addr, align 8
  %this1 = load ptr, ptr %this.addr, align 8
  %Capacity = getelementptr inbounds %"class.llvh::SmallVectorBase", ptr %this1, i32 0, i32 2
  %0 = load i32, ptr %Capacity, align 4
  %conv = zext i32 %0 to i64
  ret i64 %conv
}

; Function Attrs: mustprogress nounwind uwtable
define linkonce_odr hidden noundef i64 @_ZNK4llvh15SmallVectorBase4sizeEv(ptr noundef nonnull align 8 dereferenceable(16) %this) #0 comdat align 2 {
entry:
  %this.addr = alloca ptr, align 8
  store ptr %this, ptr %this.addr, align 8
  %this1 = load ptr, ptr %this.addr, align 8
  %Size = getelementptr inbounds %"class.llvh::SmallVectorBase", ptr %this1, i32 0, i32 1
  %0 = load i32, ptr %Size, align 8
  %conv = zext i32 %0 to i64
  ret i64 %conv
}

; Function Attrs: mustprogress nounwind uwtable
define linkonce_odr hidden void @_ZN4llvh15SmallVectorImplIPN6hermes11InstructionEEC2Ej(ptr noundef nonnull align 8 dereferenceable(16) %this, i32 noundef %N) unnamed_addr #0 comdat align 2 {
entry:
  %this.addr = alloca ptr, align 8
  %N.addr = alloca i32, align 4
  store ptr %this, ptr %this.addr, align 8
  store i32 %N, ptr %N.addr, align 4
  %this1 = load ptr, ptr %this.addr, align 8
  %0 = load i32, ptr %N.addr, align 4
  %conv = zext i32 %0 to i64
  call void @_ZN4llvh23SmallVectorTemplateBaseIPN6hermes11InstructionELb1EEC2Em(ptr noundef nonnull align 8 dereferenceable(16) %this1, i64 noundef %conv)
  ret void
}

; Function Attrs: mustprogress nounwind uwtable
define linkonce_odr hidden void @_ZN4llvh15SmallVectorImplIPN6hermes8VariableEE12emplace_backIJRS3_EEEvDpOT_(ptr noundef nonnull align 8 dereferenceable(16) %this, ptr noundef nonnull align 8 dereferenceable(8) %Args) #0 comdat align 2 {
entry:
  %this.addr.i.i = alloca ptr, align 8
  %this.addr.i = alloca ptr, align 8
  %this.addr = alloca ptr, align 8
  %Args.addr = alloca ptr, align 8
  store ptr %this, ptr %this.addr, align 8
  store ptr %Args, ptr %Args.addr, align 8
  %this1 = load ptr, ptr %this.addr, align 8
  %call = call noundef i64 @_ZNK4llvh15SmallVectorBase4sizeEv(ptr noundef nonnull align 8 dereferenceable(16) %this1)
  %call2 = call noundef i64 @_ZNK4llvh15SmallVectorBase8capacityEv(ptr noundef nonnull align 8 dereferenceable(16) %this1)
  %cmp = icmp uge i64 %call, %call2
  br i1 %cmp, label %if.then, label %if.end

if.then:                                          ; preds = %entry
  call void @_ZN4llvh23SmallVectorTemplateBaseIPN6hermes8VariableELb1EE4growEm(ptr noundef nonnull align 8 dereferenceable(16) %this1, i64 noundef 0)
  br label %if.end

if.end:                                           ; preds = %if.then, %entry
  store ptr %this1, ptr %this.addr.i, align 8
  %this1.i = load ptr, ptr %this.addr.i, align 8
  store ptr %this1.i, ptr %this.addr.i.i, align 8
  %this1.i.i = load ptr, ptr %this.addr.i.i, align 8
  %0 = load ptr, ptr %this1.i.i, align 8
  %call2.i = call noundef i64 @_ZNK4llvh15SmallVectorBase4sizeEv(ptr noundef nonnull align 8 dereferenceable(16) %this1.i)
  %add.ptr.i = getelementptr inbounds ptr, ptr %0, i64 %call2.i
  %1 = load ptr, ptr %Args.addr, align 8
  %2 = load ptr, ptr %1, align 8
  store ptr %2, ptr %add.ptr.i, align 8
  %call4 = call noundef i64 @_ZNK4llvh15SmallVectorBase4sizeEv(ptr noundef nonnull align 8 dereferenceable(16) %this1)
  %add = add i64 %call4, 1
  call void @_ZN4llvh15SmallVectorBase8set_sizeEm(ptr noundef nonnull align 8 dereferenceable(16) %this1, i64 noundef %add)
  ret void
}

; Function Attrs: mustprogress nounwind uwtable
define linkonce_odr hidden void @_ZN4llvh11SmallVectorIPN6hermes11InstructionELj2EEC2Ev(ptr noundef nonnull align 8 dereferenceable(32) %this) unnamed_addr #0 comdat align 2 {
entry:
  %this.addr = alloca ptr, align 8
  store ptr %this, ptr %this.addr, align 8
  %this1 = load ptr, ptr %this.addr, align 8
  call void @_ZN4llvh15SmallVectorImplIPN6hermes11InstructionEEC2Ej(ptr noundef nonnull align 8 dereferenceable(16) %this1, i32 noundef 2)
  ret void
}

; Function Attrs: mustprogress nounwind uwtable
define linkonce_odr hidden void @_ZN6hermes4TypeC2Ev(ptr noundef nonnull align 2 dereferenceable(4) %this) unnamed_addr #0 comdat align 2 {
entry:
  %this.addr = alloca ptr, align 8
  store ptr %this, ptr %this.addr, align 8
  %this1 = load ptr, ptr %this.addr, align 8
  %bitmask_ = getelementptr inbounds %"class.hermes::Type", ptr %this1, i32 0, i32 0
  store i16 1023, ptr %bitmask_, align 2
  %numBitmask_ = getelementptr inbounds %"class.hermes::Type", ptr %this1, i32 0, i32 1
  store i16 7, ptr %numBitmask_, align 2
  ret void
}

; Function Attrs: mustprogress nounwind uwtable
define linkonce_odr hidden void @_ZN6hermes9ScopeDesc11addVariableEPNS_8VariableE(ptr noundef nonnull align 8 dereferenceable(233) %this, ptr noundef %V) #0 comdat align 2 {
entry:
  %this.addr = alloca ptr, align 8
  %V.addr = alloca ptr, align 8
  store ptr %this, ptr %this.addr, align 8
  store ptr %V, ptr %V.addr, align 8
  %this1 = load ptr, ptr %this.addr, align 8
  %variables_ = getelementptr inbounds %"class.hermes::ScopeDesc", ptr %this1, i32 0, i32 5
  call void @_ZN4llvh15SmallVectorImplIPN6hermes8VariableEE12emplace_backIJRS3_EEEvDpOT_(ptr noundef nonnull align 8 dereferenceable(16) %variables_, ptr noundef nonnull align 8 dereferenceable(8) %V.addr)
  ret void
}

; Function Attrs: mustprogress nounwind uwtable
define linkonce_odr hidden void @_ZN6hermes5ValueC2ENS_9ValueKindE(ptr noundef nonnull align 8 dereferenceable(40) %this, i8 noundef zeroext %k) unnamed_addr #0 comdat align 2 {
entry:
  %this.addr = alloca ptr, align 8
  %k.addr = alloca i8, align 1
  store ptr %this, ptr %this.addr, align 8
  store i8 %k, ptr %k.addr, align 1
  %this1 = load ptr, ptr %this.addr, align 8
  %valueType = getelementptr inbounds %"class.hermes::Value", ptr %this1, i32 0, i32 1
  call void @_ZN6hermes4TypeC2Ev(ptr noundef nonnull align 2 dereferenceable(4) %valueType) #10
  %Users = getelementptr inbounds %"class.hermes::Value", ptr %this1, i32 0, i32 2
  call void @_ZN4llvh11SmallVectorIPN6hermes11InstructionELj2EEC2Ev(ptr noundef nonnull align 8 dereferenceable(32) %Users)
  %0 = load i8, ptr %k.addr, align 1
  %Kind = getelementptr inbounds %"class.hermes::Value", ptr %this1, i32 0, i32 0
  store i8 %0, ptr %Kind, align 8
  ret void
}

; Function Attrs: mustprogress nounwind uwtable
define hidden void @_ZN6hermes8VariableC2ENS_9ValueKindEPNS_9ScopeDescENS_18JavaScriptDeclKindENS_10IdentifierE(ptr noundef nonnull align 8 dereferenceable(65) %this, i8 noundef zeroext %k, ptr noundef %scope, i8 noundef zeroext %declKind, ptr %txt.coerce) unnamed_addr #0 align 2 {
entry:
  %txt = alloca %"class.hermes::Identifier", align 8
  %this.addr = alloca ptr, align 8
  %k.addr = alloca i8, align 1
  %scope.addr = alloca ptr, align 8
  %declKind.addr = alloca i8, align 1
  %coerce.dive = getelementptr inbounds %"class.hermes::Identifier", ptr %txt, i32 0, i32 0
  store ptr %txt.coerce, ptr %coerce.dive, align 8
  store ptr %this, ptr %this.addr, align 8
  store i8 %k, ptr %k.addr, align 1
  store ptr %scope, ptr %scope.addr, align 8
  store i8 %declKind, ptr %declKind.addr, align 1
  %this1 = load ptr, ptr %this.addr, align 8
  %0 = load i8, ptr %k.addr, align 1
  call void @_ZN6hermes5ValueC2ENS_9ValueKindE(ptr noundef nonnull align 8 dereferenceable(40) %this1, i8 noundef zeroext %0)
  %declKind2 = getelementptr inbounds %"class.hermes::Variable", ptr %this1, i32 0, i32 1
  %1 = load i8, ptr %declKind.addr, align 1
  store i8 %1, ptr %declKind2, align 8
  %text = getelementptr inbounds %"class.hermes::Variable", ptr %this1, i32 0, i32 3
  call void @llvm.memcpy.p0.p0.i64(ptr align 8 %text, ptr align 8 %txt, i64 8, i1 false)
  %parent = getelementptr inbounds %"class.hermes::Variable", ptr %this1, i32 0, i32 4
  %2 = load ptr, ptr %scope.addr, align 8
  store ptr %2, ptr %parent, align 8
  %strictImmutableBinding_ = getelementptr inbounds %"class.hermes::Variable", ptr %this1, i32 0, i32 5
  %3 = load i8, ptr %declKind.addr, align 1
  %cmp = icmp eq i8 %3, 0
  %frombool = zext i1 %cmp to i8
  store i8 %frombool, ptr %strictImmutableBinding_, align 8
  %4 = load ptr, ptr %scope.addr, align 8
  call void @_ZN6hermes9ScopeDesc11addVariableEPNS_8VariableE(ptr noundef nonnull align 8 dereferenceable(233) %4, ptr noundef %this1)
  ret void
}