; Function Attrs: mustprogress nounwind uwtable
define hidden void @_ZN6hermes8VariableC2ENS_9ValueKindEPNS_9ScopeDescENS_18JavaScriptDeclKindENS_10IdentifierE(ptr noundef nonnull align 8 dereferenceable(65) %this, i8 noundef zeroext %k, ptr noundef %scope, i8 noundef zeroext %declKind, ptr %txt.coerce) unnamed_addr #0 align 2 {
entry:
  %valueType.i = getelementptr inbounds i8, ptr %this, i64 2
  store i16 1023, ptr %valueType.i, align 2
  %numBitmask_.i.i = getelementptr inbounds i8, ptr %this, i64 4
  store i16 7, ptr %numBitmask_.i.i, align 4
  %Users.i = getelementptr inbounds i8, ptr %this, i64 8
  %add.ptr.i.i.i.i.i.i = getelementptr inbounds i8, ptr %this, i64 24
  store ptr %add.ptr.i.i.i.i.i.i, ptr %Users.i, align 8
  %Size.i.i.i.i.i.i = getelementptr inbounds i8, ptr %this, i64 16
  store i32 0, ptr %Size.i.i.i.i.i.i, align 8
  %Capacity2.i.i.i.i.i.i = getelementptr inbounds i8, ptr %this, i64 20
  store i32 2, ptr %Capacity2.i.i.i.i.i.i, align 4
  store i8 %k, ptr %this, align 8
  %declKind2 = getelementptr inbounds i8, ptr %this, i64 40
  store i8 %declKind, ptr %declKind2, align 8
  %text = getelementptr inbounds i8, ptr %this, i64 48
  store ptr %txt.coerce, ptr %text, align 8
  %parent = getelementptr inbounds i8, ptr %this, i64 56
  store ptr %scope, ptr %parent, align 8
  %strictImmutableBinding_ = getelementptr inbounds i8, ptr %this, i64 64
  %cmp = icmp eq i8 %declKind, 0
  %frombool = zext i1 %cmp to i8
  store i8 %frombool, ptr %strictImmutableBinding_, align 8
  %variables_.i = getelementptr inbounds i8, ptr %scope, i64 152
  %Size.i.i.i = getelementptr inbounds i8, ptr %scope, i64 160
  %0 = load i32, ptr %Size.i.i.i, align 8
  %Capacity.i.i.i = getelementptr inbounds i8, ptr %scope, i64 164
  %1 = load i32, ptr %Capacity.i.i.i, align 4
  %cmp.not.i.i = icmp ult i32 %0, %1
  br i1 %cmp.not.i.i, label %_ZN6hermes9ScopeDesc11addVariableEPNS_8VariableE.exit, label %if.then.i.i

if.then.i.i:                                      ; preds = %entry
  %add.ptr.i.i.i.i.i = getelementptr inbounds i8, ptr %scope, i64 168
  tail call void @_ZN4llvh15SmallVectorBase8grow_podEPvmm(ptr noundef nonnull align 8 dereferenceable(16) %variables_.i, ptr noundef nonnull %add.ptr.i.i.i.i.i, i64 noundef 0, i64 noundef 8) #26
  %.pre.i.i = load i32, ptr %Size.i.i.i, align 8
  br label %_ZN6hermes9ScopeDesc11addVariableEPNS_8VariableE.exit

_ZN6hermes9ScopeDesc11addVariableEPNS_8VariableE.exit: ; preds = %entry, %if.then.i.i
  %2 = phi i32 [ %.pre.i.i, %if.then.i.i ], [ %0, %entry ]
  %3 = load ptr, ptr %variables_.i, align 8
  %conv.i3.i.i = zext i32 %2 to i64
  %add.ptr.i.i.i = getelementptr inbounds ptr, ptr %3, i64 %conv.i3.i.i
  store ptr %this, ptr %add.ptr.i.i.i, align 8
  %4 = load i32, ptr %Size.i.i.i, align 8
  %add.i.i = add i32 %4, 1
  store i32 %add.i.i, ptr %Size.i.i.i, align 8
  ret void
}